target datalayout = "e-m:e-p270:32:32-p271:32:32-p272:64:64-i64:64-i128:128-f80:128-n8:16:32:64-S128"
target triple = "x86_64-pc-linux-gnu"

%struct.object_id = type { [32 x i8], i32 }
%struct.ref_array_item = type { %struct.object_id, ptr, i32, i32, ptr, ptr, ptr, ptr, ptr, [0 x i8] }
%struct.ref_array = type { i32, i32, ptr, ptr, ptr, i64 }
%struct.commit = type { %struct.object, i64, ptr, ptr, i32 }
%struct.object = type { i32, %struct.object_id }

@the_repository = external global ptr, align 8

; Function Attrs: nounwind uwtable
define internal void @reach_filter(ptr noundef %0, ptr noundef %1, i32 noundef %2) #0 {
  %4 = alloca ptr, align 8
  %5 = alloca ptr, align 8
  %6 = alloca i32, align 4
  %7 = alloca i64, align 8
  %8 = alloca i64, align 8
  %9 = alloca ptr, align 8
  %10 = alloca i32, align 4
  %11 = alloca ptr, align 8
  %12 = alloca ptr, align 8
  %13 = alloca ptr, align 8
  %14 = alloca i32, align 4
  %15 = alloca ptr, align 8
  store ptr %0, ptr %4, align 8, !tbaa !66
  store ptr %1, ptr %5, align 8, !tbaa !128
  store i32 %2, ptr %6, align 4, !tbaa !15
  call void @llvm.lifetime.start.p0(i64 8, ptr %7) #11
  call void @llvm.lifetime.start.p0(i64 8, ptr %8) #11
  call void @llvm.lifetime.start.p0(i64 8, ptr %9) #11
  %16 = load ptr, ptr %5, align 8, !tbaa !128
  %17 = load ptr, ptr %16, align 8, !tbaa !130
  %18 = icmp ne ptr %17, null
  br i1 %18, label %20, label %19

19:                                               ; preds = %3
  store i32 1, ptr %10, align 4
  br label %125

20:                                               ; preds = %3
  %21 = load ptr, ptr %4, align 8, !tbaa !66
  %22 = getelementptr inbounds nuw %struct.ref_array, ptr %21, i32 0, i32 0
  %23 = load i32, ptr %22, align 8, !tbaa !72
  %24 = sext i32 %23 to i64
  %25 = call ptr @xcalloc(i64 noundef %24, i64 noundef 8)
  store ptr %25, ptr %9, align 8, !tbaa !97
  store i64 0, ptr %7, align 8, !tbaa !71
  br label %26

26:                                               ; preds = %46, %20
  %27 = load i64, ptr %7, align 8, !tbaa !71
  %28 = load ptr, ptr %4, align 8, !tbaa !66
  %29 = getelementptr inbounds nuw %struct.ref_array, ptr %28, i32 0, i32 0
  %30 = load i32, ptr %29, align 8, !tbaa !72
  %31 = sext i32 %30 to i64
  %32 = icmp ult i64 %27, %31
  br i1 %32, label %33, label %49

33:                                               ; preds = %26
  call void @llvm.lifetime.start.p0(i64 8, ptr %11) #11
  %34 = load ptr, ptr %4, align 8, !tbaa !66
  %35 = getelementptr inbounds nuw %struct.ref_array, ptr %34, i32 0, i32 2
  %36 = load ptr, ptr %35, align 8, !tbaa !78
  %37 = load i64, ptr %7, align 8, !tbaa !71
  %38 = getelementptr inbounds nuw ptr, ptr %36, i64 %37
  %39 = load ptr, ptr %38, align 8, !tbaa !69
  store ptr %39, ptr %11, align 8, !tbaa !69
  %40 = load ptr, ptr %11, align 8, !tbaa !69
  %41 = getelementptr inbounds nuw %struct.ref_array_item, ptr %40, i32 0, i32 5
  %42 = load ptr, ptr %41, align 8, !tbaa !99
  %43 = load ptr, ptr %9, align 8, !tbaa !97
  %44 = load i64, ptr %7, align 8, !tbaa !71
  %45 = getelementptr inbounds nuw ptr, ptr %43, i64 %44
  store ptr %42, ptr %45, align 8, !tbaa !99
  call void @llvm.lifetime.end.p0(i64 8, ptr %11) #11
  br label %46

46:                                               ; preds = %33
  %47 = load i64, ptr %7, align 8, !tbaa !71
  %48 = add i64 %47, 1
  store i64 %48, ptr %7, align 8, !tbaa !71
  br label %26, !llvm.loop !131

49:                                               ; preds = %26
  %50 = load ptr, ptr @the_repository, align 8, !tbaa !56
  %51 = load ptr, ptr %5, align 8, !tbaa !128
  %52 = load ptr, ptr %51, align 8, !tbaa !130
  %53 = load ptr, ptr %9, align 8, !tbaa !97
  %54 = load ptr, ptr %4, align 8, !tbaa !66
  %55 = getelementptr inbounds nuw %struct.ref_array, ptr %54, i32 0, i32 0
  %56 = load i32, ptr %55, align 8, !tbaa !72
  %57 = sext i32 %56 to i64
  call void @tips_reachable_from_bases(ptr noundef %50, ptr noundef %52, ptr noundef %53, i64 noundef %57, i32 noundef 2)
  %58 = load ptr, ptr %4, align 8, !tbaa !66
  %59 = getelementptr inbounds nuw %struct.ref_array, ptr %58, i32 0, i32 0
  %60 = load i32, ptr %59, align 8, !tbaa !72
  %61 = sext i32 %60 to i64
  store i64 %61, ptr %8, align 8, !tbaa !71
  %62 = load ptr, ptr %4, align 8, !tbaa !66
  %63 = getelementptr inbounds nuw %struct.ref_array, ptr %62, i32 0, i32 0
  store i32 0, ptr %63, align 8, !tbaa !72
  store i64 0, ptr %7, align 8, !tbaa !71
  br label %64

64:                                               ; preds = %109, %49
  %65 = load i64, ptr %7, align 8, !tbaa !71
  %66 = load i64, ptr %8, align 8, !tbaa !71
  %67 = icmp ult i64 %65, %66
  br i1 %67, label %68, label %112

68:                                               ; preds = %64
  call void @llvm.lifetime.start.p0(i64 8, ptr %12) #11
  %69 = load ptr, ptr %4, align 8, !tbaa !66
  %70 = getelementptr inbounds nuw %struct.ref_array, ptr %69, i32 0, i32 2
  %71 = load ptr, ptr %70, align 8, !tbaa !78
  %72 = load i64, ptr %7, align 8, !tbaa !71
  %73 = getelementptr inbounds nuw ptr, ptr %71, i64 %72
  %74 = load ptr, ptr %73, align 8, !tbaa !69
  store ptr %74, ptr %12, align 8, !tbaa !69
  call void @llvm.lifetime.start.p0(i64 8, ptr %13) #11
  %75 = load ptr, ptr %12, align 8, !tbaa !69
  %76 = getelementptr inbounds nuw %struct.ref_array_item, ptr %75, i32 0, i32 5
  %77 = load ptr, ptr %76, align 8, !tbaa !99
  store ptr %77, ptr %13, align 8, !tbaa !99
  call void @llvm.lifetime.start.p0(i64 4, ptr %14) #11
  %78 = load ptr, ptr %13, align 8, !tbaa !99
  %79 = getelementptr inbounds nuw %struct.commit, ptr %78, i32 0, i32 0
  %80 = load i32, ptr %79, align 8
  %81 = lshr i32 %80, 4
  %82 = and i32 %81, 2
  %83 = icmp ne i32 %82, 0
  %84 = xor i1 %83, true
  %85 = xor i1 %84, true
  %86 = zext i1 %85 to i32
  store i32 %86, ptr %14, align 4, !tbaa !15
  %87 = load i32, ptr %14, align 4, !tbaa !15
  %88 = load i32, ptr %6, align 4, !tbaa !15
  %89 = icmp eq i32 %87, %88
  br i1 %89, label %90, label %106

90:                                               ; preds = %68
  %91 = load ptr, ptr %4, align 8, !tbaa !66
  %92 = getelementptr inbounds nuw %struct.ref_array, ptr %91, i32 0, i32 2
  %93 = load ptr, ptr %92, align 8, !tbaa !78
  %94 = load i64, ptr %7, align 8, !tbaa !71
  %95 = getelementptr inbounds nuw ptr, ptr %93, i64 %94
  %96 = load ptr, ptr %95, align 8, !tbaa !69
  %97 = load ptr, ptr %4, align 8, !tbaa !66
  %98 = getelementptr inbounds nuw %struct.ref_array, ptr %97, i32 0, i32 2
  %99 = load ptr, ptr %98, align 8, !tbaa !78
  %100 = load ptr, ptr %4, align 8, !tbaa !66
  %101 = getelementptr inbounds nuw %struct.ref_array, ptr %100, i32 0, i32 0
  %102 = load i32, ptr %101, align 8, !tbaa !72
  %103 = add nsw i32 %102, 1
  store i32 %103, ptr %101, align 8, !tbaa !72
  %104 = sext i32 %102 to i64
  %105 = getelementptr inbounds ptr, ptr %99, i64 %104
  store ptr %96, ptr %105, align 8, !tbaa !69
  br label %108

106:                                              ; preds = %68
  %107 = load ptr, ptr %12, align 8, !tbaa !69
  call void @free_array_item(ptr noundef %107)
  br label %108

108:                                              ; preds = %106, %90
  call void @llvm.lifetime.end.p0(i64 4, ptr %14) #11
  call void @llvm.lifetime.end.p0(i64 8, ptr %13) #11
  call void @llvm.lifetime.end.p0(i64 8, ptr %12) #11
  br label %109

109:                                              ; preds = %108
  %110 = load i64, ptr %7, align 8, !tbaa !71
  %111 = add i64 %110, 1
  store i64 %111, ptr %7, align 8, !tbaa !71
  br label %64, !llvm.loop !132

112:                                              ; preds = %64
  %113 = load i64, ptr %8, align 8, !tbaa !71
  %114 = load ptr, ptr %9, align 8, !tbaa !97
  call void @clear_commit_marks_many(i64 noundef %113, ptr noundef %114, i32 noundef 100698111)
  br label %115

115:                                              ; preds = %119, %112
  %116 = load ptr, ptr %5, align 8, !tbaa !128
  %117 = load ptr, ptr %116, align 8, !tbaa !130
  %118 = icmp ne ptr %117, null
  br i1 %118, label %119, label %123

119:                                              ; preds = %115
  call void @llvm.lifetime.start.p0(i64 8, ptr %15) #11
  %120 = load ptr, ptr %5, align 8, !tbaa !128
  %121 = call ptr @pop_commit(ptr noundef %120)
  store ptr %121, ptr %15, align 8, !tbaa !99
  %122 = load ptr, ptr %15, align 8, !tbaa !99
  call void @clear_commit_marks(ptr noundef %122, i32 noundef 100698111)
  call void @llvm.lifetime.end.p0(i64 8, ptr %15) #11
  br label %115, !llvm.loop !133

123:                                              ; preds = %115
  %124 = load ptr, ptr %9, align 8, !tbaa !97
  call void @free(ptr noundef %124) #11
  store i32 0, ptr %10, align 4
  br label %125

125:                                              ; preds = %123, %19
  call void @llvm.lifetime.end.p0(i64 8, ptr %9) #11
  call void @llvm.lifetime.end.p0(i64 8, ptr %8) #11
  call void @llvm.lifetime.end.p0(i64 8, ptr %7) #11
  %126 = load i32, ptr %10, align 4
  switch i32 %126, label %128 [
    i32 0, label %127
    i32 1, label %127
  ]

127:                                              ; preds = %125, %125
  ret void

128:                                              ; preds = %125
  unreachable
}