; Function Attrs: nounwind uwtable
define internal fastcc void @reach_filter(ptr noundef captures(none) %0, ptr noundef %1, i32 noundef range(i32 0, 2) %2) unnamed_addr #0 {
  %4 = load ptr, ptr %1, align 8, !tbaa !120
  %.not = icmp eq ptr %4, null
  br i1 %.not, label %45, label %5

5:                                                ; preds = %3
  %6 = load i32, ptr %0, align 8, !tbaa !60
  %7 = sext i32 %6 to i64
  %8 = tail call ptr @xcalloc(i64 noundef %7, i64 noundef 8) #23
  %9 = load i32, ptr %0, align 8, !tbaa !60
  %10 = sext i32 %9 to i64
  %.not46 = icmp eq i32 %9, 0
  br i1 %.not46, label %._crit_edge, label %.lr.ph

.lr.ph:                                           ; preds = %5
  %11 = getelementptr inbounds nuw i8, ptr %0, i64 8
  %12 = load ptr, ptr %11, align 8, !tbaa !66
  br label %13

13:                                               ; preds = %.lr.ph, %13
  %.037 = phi i64 [ 0, %.lr.ph ], [ %19, %13 ]
  %14 = getelementptr inbounds nuw ptr, ptr %12, i64 %.037
  %15 = load ptr, ptr %14, align 8, !tbaa !67
  %16 = getelementptr inbounds nuw i8, ptr %15, i64 64
  %17 = load ptr, ptr %16, align 8, !tbaa !88
  %18 = getelementptr inbounds nuw ptr, ptr %8, i64 %.037
  store ptr %17, ptr %18, align 8, !tbaa !88
  %19 = add nuw i64 %.037, 1
  %exitcond.not = icmp eq i64 %19, %10
  br i1 %exitcond.not, label %._crit_edge, label %13, !llvm.loop !121

._crit_edge:                                      ; preds = %13, %5
  %20 = load ptr, ptr @the_repository, align 8, !tbaa !49
  %21 = load ptr, ptr %1, align 8, !tbaa !120
  tail call void @tips_reachable_from_bases(ptr noundef %20, ptr noundef %21, ptr noundef %8, i64 noundef %10, i32 noundef 2) #23
  %22 = load i32, ptr %0, align 8, !tbaa !60
  %23 = sext i32 %22 to i64
  store i32 0, ptr %0, align 8, !tbaa !60
  %.not47 = icmp eq i32 %22, 0
  br i1 %.not47, label %._crit_edge41, label %.lr.ph40

.lr.ph40:                                         ; preds = %._crit_edge
  %24 = getelementptr inbounds nuw i8, ptr %0, i64 8
  br label %25

25:                                               ; preds = %.lr.ph40, %40
  %.138 = phi i64 [ 0, %.lr.ph40 ], [ %41, %40 ]
  %26 = load ptr, ptr %24, align 8, !tbaa !66
  %27 = getelementptr inbounds nuw ptr, ptr %26, i64 %.138
  %28 = load ptr, ptr %27, align 8, !tbaa !67
  %29 = getelementptr inbounds nuw i8, ptr %28, i64 64
  %30 = load ptr, ptr %29, align 8, !tbaa !88
  %31 = load i32, ptr %30, align 8
  %32 = lshr i32 %31, 5
  %.lobit = and i32 %32, 1
  %33 = icmp eq i32 %.lobit, %2
  br i1 %33, label %34, label %39

34:                                               ; preds = %25
  %35 = load i32, ptr %0, align 8, !tbaa !60
  %36 = add nsw i32 %35, 1
  store i32 %36, ptr %0, align 8, !tbaa !60
  %37 = sext i32 %35 to i64
  %38 = getelementptr inbounds ptr, ptr %26, i64 %37
  store ptr %28, ptr %38, align 8, !tbaa !67
  br label %40

39:                                               ; preds = %25
  tail call fastcc void @free_array_item(ptr noundef nonnull %28)
  br label %40

40:                                               ; preds = %39, %34
  %41 = add nuw i64 %.138, 1
  %exitcond48.not = icmp eq i64 %41, %23
  br i1 %exitcond48.not, label %._crit_edge41, label %25, !llvm.loop !122

._crit_edge41:                                    ; preds = %40, %._crit_edge
  tail call void @clear_commit_marks_many(i64 noundef %23, ptr noundef %8, i32 noundef 100698111) #23
  %42 = load ptr, ptr %1, align 8, !tbaa !120
  %.not3642 = icmp eq ptr %42, null
  br i1 %.not3642, label %._crit_edge45, label %.lr.ph44

.lr.ph44:                                         ; preds = %._crit_edge41, %.lr.ph44
  %43 = tail call ptr @pop_commit(ptr noundef nonnull %1) #23
  tail call void @clear_commit_marks(ptr noundef %43, i32 noundef 100698111) #23
  %44 = load ptr, ptr %1, align 8, !tbaa !120
  %.not36 = icmp eq ptr %44, null
  br i1 %.not36, label %._crit_edge45, label %.lr.ph44, !llvm.loop !123

._crit_edge45:                                    ; preds = %.lr.ph44, %._crit_edge41
  tail call void @free(ptr noundef %8) #23
  br label %45

45:                                               ; preds = %3, %._crit_edge45
  ret void
}